target datalayout = "e-m:e-p270:32:32-p271:32:32-p272:64:64-i64:64-i128:128-f80:128-n8:16:32:64-S128"
target triple = "x86_64-pc-linux-gnu"

%class.symbol = type { ptr }
%class.small_object_allocator = type { [32 x ptr], [32 x ptr], i64 }
%class.svector = type { %class.vector.2 }
%class.vector.2 = type { ptr }
%"class.datalog::ddnf" = type { %"class.datalog::engine_base", ptr }
%"class.datalog::engine_base" = type { ptr, ptr, %"class.std::__cxx11::basic_string" }
%"class.std::__cxx11::basic_string" = type { %"struct.std::__cxx11::basic_string<char>::_Alloc_hider", i64, %union.anon }
%"struct.std::__cxx11::basic_string<char>::_Alloc_hider" = type { ptr }
%union.anon = type { i64, [8 x i8] }
%"class.datalog::context" = type <{ ptr, ptr, ptr, %class.params_ref, ptr, i8, i8, [6 x i8], %class.symbol, %"class.datalog::dl_decl_util", %class.th_rewriter, %class.var_subst, %"class.datalog::rule_manager", %"class.datalog::context::contains_pred", %"class.datalog::rule_properties", %"class.datalog::rule_transformer", %class.trail_stack, %class.ref_vector.49, %class.bind_variables, %class.obj_map.66, %class.obj_hashtable.71, %class.map.77, %class.obj_map.81, %"class.datalog::rule_set", %"class.datalog::rule_set", %class.expr_free_vars, i32, [4 x i8], %class.ref_vector.10, %class.svector.64, %class.vector.110, %class.ref_vector.10, %class.ref, %class.ref.111, ptr, %class.scoped_ptr.112, i8, i8, i8, i8, i32, %class.obj_ref, %class.obj_ref, i32, [4 x i8] }>
%class.params_ref = type { ptr }
%"class.datalog::dl_decl_util" = type <{ ptr, %class.scoped_ptr, %class.scoped_ptr.5, i32, [4 x i8] }>
%class.scoped_ptr = type { ptr }
%class.scoped_ptr.5 = type { ptr }
%class.th_rewriter = type { ptr, %class.params_ref }
%class.var_subst = type { %class.beta_reducer, i8, [7 x i8] }
%class.beta_reducer = type <{ %class.rewriter_tpl, [8 x i8] }>
%class.rewriter_tpl = type { %class.rewriter_core, ptr, i32, %class.ptr_vector.13, %class.var_shifter, %class.inv_var_shifter, %class.obj_ref, %class.obj_ref.24, %class.obj_ref.24, %class.svector.3 }
%class.rewriter_core = type { ptr, ptr, i8, i8, %class.ptr_vector.6, ptr, %class.svector.8, %class.ref_vector.10, %class.ptr_vector.6, ptr, %class.ref_vector.15, %class.obj_hashtable, ptr, i32, %class.svector.22 }
%class.svector.8 = type { %class.vector.9 }
%class.vector.9 = type { ptr }
%class.ptr_vector.6 = type { %class.vector.7 }
%class.vector.7 = type { ptr }
%class.ref_vector.15 = type { %class.ref_vector_core.16 }
%class.ref_vector_core.16 = type { %class.ref_manager_wrapper.17, %class.ptr_vector.18 }
%class.ref_manager_wrapper.17 = type { ptr }
%class.ptr_vector.18 = type { %class.vector.19 }
%class.vector.19 = type { ptr }
%class.obj_hashtable = type { %class.core_hashtable.base.21, [4 x i8] }
%class.core_hashtable.base.21 = type <{ ptr, i32, i32, i32 }>
%class.svector.22 = type { %class.vector.23 }
%class.vector.23 = type { ptr }
%class.ptr_vector.13 = type { %class.vector.14 }
%class.vector.14 = type { ptr }
%class.var_shifter = type <{ %class.var_shifter_core, i32, i32, i32, [4 x i8] }>
%class.var_shifter_core = type { %class.rewriter_core }
%class.inv_var_shifter = type <{ %class.var_shifter_core, i32, [4 x i8] }>
%class.obj_ref.24 = type { ptr, ptr }
%class.svector.3 = type { %class.vector.4 }
%class.vector.4 = type { ptr }
%"class.datalog::rule_manager" = type { ptr, ptr, %"class.datalog::rule_counter", %class.used_vars, %class.uint_set, %class.expr_free_vars, %class.ref_vector.15, %class.obj_ref.24, %class.ref_vector.10, %class.svector, %class.hnf, %class.qe_lite, %class.label_rewriter, %"struct.datalog::uninterpreted_function_finder_proc", %"struct.datalog::quantifier_finder_proc", [5 x i8], %class.expr_sparse_mark, %"struct.datalog::fd_finder_proc" }
%"class.datalog::rule_counter" = type { %class.var_counter }
%class.var_counter = type { %class.counter, %class.ast_fast_mark, %class.expr_free_vars, %class.ptr_vector.13, %class.svector.3 }
%class.counter = type { %class.u_map }
%class.u_map = type { %class.map }
%class.map = type { %class.table2map }
%class.table2map = type { %class.core_hashtable.25 }
%class.core_hashtable.25 = type <{ ptr, i32, i32, i32, [4 x i8] }>
%class.ast_fast_mark = type { %class.ptr_buffer }
%class.ptr_buffer = type { %class.buffer }
%class.buffer = type { ptr, i32, i32, [128 x i8] }
%class.used_vars = type { %class.ptr_vector.27, %class.hashtable, %class.svector.31, i32, i32 }
%class.ptr_vector.27 = type { %class.vector.28 }
%class.vector.28 = type { ptr }
%class.hashtable = type { %class.core_hashtable.base.30, [4 x i8] }
%class.core_hashtable.base.30 = type <{ ptr, i32, i32, i32 }>
%class.svector.31 = type { %class.vector.32 }
%class.vector.32 = type { ptr }
%class.uint_set = type { %class.svector.3 }
%class.hnf = type { ptr }
%class.qe_lite = type { ptr }
%class.label_rewriter = type { i32, %class.rewriter_tpl.33 }
%class.rewriter_tpl.33 = type { %class.rewriter_core, ptr, i32, %class.ptr_vector.13, %class.var_shifter, %class.inv_var_shifter, %class.obj_ref, %class.obj_ref.24, %class.obj_ref.24, %class.svector.3 }
%"struct.datalog::uninterpreted_function_finder_proc" = type { ptr, %"class.datatype::util", %"class.datalog::dl_decl_util", i8, ptr }
%"class.datatype::util" = type { ptr, i32, ptr }
%"struct.datalog::quantifier_finder_proc" = type { i8, i8, i8 }
%class.expr_sparse_mark = type { %class.obj_hashtable }
%"struct.datalog::fd_finder_proc" = type <{ ptr, %class.bv_util, i8, [7 x i8] }>
%class.bv_util = type { %class.bv_recognizers, ptr, ptr }
%class.bv_recognizers = type { i32 }
%"class.datalog::context::contains_pred" = type { %class.i_expr_pred, ptr }
%class.i_expr_pred = type { ptr }
%"class.datalog::rule_properties" = type <{ ptr, ptr, ptr, ptr, %"class.datatype::util", %"class.datalog::dl_decl_util", %class.arith_util, %class.bv_util, %class.array_util, %"class.recfun::util", i8, [7 x i8], ptr, %class.obj_map, %class.obj_map.38, %class.ptr_vector.43, %class.ptr_vector.43, %class.ptr_vector.43, i8, i8, [6 x i8] }>
%class.arith_util = type { ptr, ptr }
%class.array_util = type { %class.array_recognizers, ptr }
%class.array_recognizers = type { i32 }
%"class.recfun::util" = type { ptr, i32, ptr }
%class.obj_map = type { %class.core_hashtable.34 }
%class.core_hashtable.34 = type <{ ptr, i32, i32, i32, [4 x i8] }>
%class.obj_map.38 = type { %class.core_hashtable.39 }
%class.core_hashtable.39 = type <{ ptr, i32, i32, i32, [4 x i8] }>
%class.ptr_vector.43 = type { %class.vector.44 }
%class.vector.44 = type { ptr }
%"class.datalog::rule_transformer" = type { ptr, ptr, i8, %class.svector.45 }
%class.svector.45 = type { %class.vector.46 }
%class.vector.46 = type { ptr }
%class.trail_stack = type { %class.ptr_vector.47, %class.svector.3, %class.region }
%class.ptr_vector.47 = type { %class.vector.48 }
%class.vector.48 = type { ptr }
%class.region = type { ptr, ptr, ptr, ptr, ptr }
%class.ref_vector.49 = type { %class.ref_vector_core.50 }
%class.ref_vector_core.50 = type { %class.ref_manager_wrapper.51, %class.ptr_vector.52 }
%class.ref_manager_wrapper.51 = type { ptr }
%class.ptr_vector.52 = type { %class.vector.53 }
%class.vector.53 = type { ptr }
%class.bind_variables = type { ptr, %class.ref_vector.15, %class.obj_map.54, %class.obj_map.59, %class.ref_vector.10, %class.ptr_vector.27, %class.svector.64, %class.ptr_vector.13, %class.ptr_vector.13 }
%class.obj_map.54 = type { %class.core_hashtable.55 }
%class.core_hashtable.55 = type <{ ptr, i32, i32, i32, [4 x i8] }>
%class.obj_map.59 = type { %class.core_hashtable.60 }
%class.core_hashtable.60 = type <{ ptr, i32, i32, i32, [4 x i8] }>
%class.obj_map.66 = type { %class.core_hashtable.67 }
%class.core_hashtable.67 = type <{ ptr, i32, i32, i32, [4 x i8] }>
%class.obj_hashtable.71 = type { %class.core_hashtable.base.75, [4 x i8] }
%class.core_hashtable.base.75 = type <{ ptr, i32, i32, i32 }>
%class.map.77 = type { %class.table2map.78 }
%class.table2map.78 = type { %class.core_hashtable.79 }
%class.core_hashtable.79 = type <{ ptr, i32, i32, i32, [4 x i8] }>
%class.obj_map.81 = type { %class.core_hashtable.82 }
%class.core_hashtable.82 = type <{ ptr, i32, i32, i32, [4 x i8] }>
%"class.datalog::rule_set" = type { ptr, ptr, %class.ref_vector.86, %class.obj_map.89, %"class.datalog::rule_dependencies", %class.scoped_ptr.99, %class.obj_hashtable.71, %class.obj_map.100, %class.obj_map.100, %class.ref_vector.105, %class.ptr_vector.43 }
%class.ref_vector.86 = type { %class.ref_vector_core.87 }
%class.ref_vector_core.87 = type { %class.ref_manager_wrapper.88, %class.ptr_vector.43 }
%class.ref_manager_wrapper.88 = type { ptr }
%class.obj_map.89 = type { %class.core_hashtable.90 }
%class.core_hashtable.90 = type <{ ptr, i32, i32, i32, [4 x i8] }>
%"class.datalog::rule_dependencies" = type { %class.obj_map.94, ptr, %class.ptr_vector.13, %class.expr_sparse_mark, %class.obj_hashtable.71 }
%class.obj_map.94 = type { %class.core_hashtable.95 }
%class.core_hashtable.95 = type <{ ptr, i32, i32, i32, [4 x i8] }>
%class.scoped_ptr.99 = type { ptr }
%class.obj_map.100 = type { %class.core_hashtable.101 }
%class.core_hashtable.101 = type <{ ptr, i32, i32, i32, [4 x i8] }>
%class.ref_vector.105 = type { %class.ref_vector_core.106 }
%class.ref_vector_core.106 = type { %class.ref_manager_wrapper.107, %class.ptr_vector.108 }
%class.ref_manager_wrapper.107 = type { ptr }
%class.ptr_vector.108 = type { %class.vector.109 }
%class.vector.109 = type { ptr }
%class.expr_free_vars = type { %class.expr_sparse_mark, %class.ptr_vector.27, %class.ptr_vector.13 }
%class.svector.64 = type { %class.vector.65 }
%class.vector.65 = type { ptr }
%class.vector.110 = type { ptr }
%class.ref_vector.10 = type { %class.ref_vector_core.11 }
%class.ref_vector_core.11 = type { %class.ref_manager_wrapper.12, %class.ptr_vector.13 }
%class.ref_manager_wrapper.12 = type { ptr }
%class.ref = type { ptr }
%class.ref.111 = type { ptr }
%class.scoped_ptr.112 = type { ptr }
%class.obj_ref = type { ptr, ptr }
%"class.datalog::ddnf::imp" = type { ptr, ptr, ptr, %class.bv_util, %class.ptr_vector.13, %class.ast_mark, %class.ast_mark, %"class.datalog::ddnfs", [8 x i8], %class.obj_map.148, %class.obj_map.54, %class.ref_vector.10, %"class.datalog::context" }
%class.ast_mark = type { ptr, %class.obj_mark, %class.obj_mark.142 }
%class.obj_mark = type { [8 x i8], %class.bit_vector }
%class.bit_vector = type { i32, i32, ptr }
%class.obj_mark.142 = type { [8 x i8], %class.bit_vector }
%"class.datalog::ddnfs" = type { %class.u_map.143 }
%class.u_map.143 = type { %class.map.144 }
%class.map.144 = type { %class.table2map.145 }
%class.table2map.145 = type { %class.core_hashtable.146 }
%class.core_hashtable.146 = type <{ ptr, i32, i32, i32, [4 x i8] }>
%class.obj_map.148 = type { %class.core_hashtable.149 }
%class.core_hashtable.149 = type <{ ptr, i32, i32, i32, [4 x i8] }>
%class.ast = type { i32, i32, i32, i32 }
%class.ast_manager = type { %class.reslimit, %class.small_object_allocator, %class.family_manager, %class.parray_manager, %class.dependency_manager, %class.parray_manager.126, %class.ptr_vector.129, i32, i8, %class.ast_table, %class.obj_map.132, %class.id_gen, %class.id_gen, ptr, ptr, ptr, ptr, ptr, i32, i8, [3 x i8], %class.u_map.137, ptr, i8, i8, ptr, %class.symbol, %class.obj_map.100, ptr }
%class.reslimit = type { %"struct.std::atomic", i8, i64, i64, %class.svector.113, %class.ptr_vector.115 }
%"struct.std::atomic" = type { %"struct.std::__atomic_base" }
%"struct.std::__atomic_base" = type { i32 }
%class.svector.113 = type { %class.vector.114 }
%class.vector.114 = type { ptr }
%class.ptr_vector.115 = type { %class.vector.116 }
%class.vector.116 = type { ptr }
%class.family_manager = type { i32, %class.symbol_table, %class.svector.64 }
%class.symbol_table = type { %class.core_hashtable.117, %class.vector.119, %class.svector.120 }
%class.core_hashtable.117 = type <{ ptr, i32, i32, i32, [4 x i8] }>
%class.vector.119 = type { ptr }
%class.svector.120 = type { %class.vector.121 }
%class.vector.121 = type { ptr }
%class.parray_manager = type { ptr, ptr, %class.ptr_vector.122, %class.ptr_vector.122 }
%class.ptr_vector.122 = type { %class.vector.123 }
%class.vector.123 = type { ptr }
%class.dependency_manager = type { ptr, ptr, %class.ptr_vector.124 }
%class.ptr_vector.124 = type { %class.vector.125 }
%class.vector.125 = type { ptr }
%class.parray_manager.126 = type { ptr, ptr, %class.ptr_vector.127, %class.ptr_vector.127 }
%class.ptr_vector.127 = type { %class.vector.128 }
%class.vector.128 = type { ptr }
%class.ptr_vector.129 = type { %class.vector.130 }
%class.vector.130 = type { ptr }
%class.ast_table = type { %class.chashtable }
%class.chashtable = type { ptr, i32, i32, i32, i32, i32, i32, i32, ptr, ptr, ptr }
%class.obj_map.132 = type { %class.core_hashtable.133 }
%class.core_hashtable.133 = type <{ ptr, i32, i32, i32, [4 x i8] }>
%class.id_gen = type { i32, %class.svector.3 }
%class.u_map.137 = type { %class.map.138 }
%class.map.138 = type { %class.table2map.139 }
%class.table2map.139 = type { %class.core_hashtable.140 }
%class.core_hashtable.140 = type <{ ptr, i32, i32, i32, [4 x i8] }>

@.str.2 = private unnamed_addr constant [29 x i8] c"UNEXPECTED CODE WAS REACHED.\00", align 1
@.str.32 = private unnamed_addr constant [105 x i8] c"generated/home/dtcxzyw/WorkSpace/Projects/compilers/llvm-opt-benchmark/bench/z3/z3/src/muz/ddnf/ddnf.cpp\00", align 1

; Function Attrs: mustprogress nounwind uwtable
define linkonce_odr hidden void @_ZN3ast7inc_refEv(ptr noundef nonnull align 4 dereferenceable(16) %0) #5 comdat align 2 {
  %2 = alloca ptr, align 8
  store ptr %0, ptr %2, align 8, !tbaa !544
  %3 = load ptr, ptr %2, align 8
  %4 = getelementptr inbounds nuw %class.ast, ptr %3, i32 0, i32 2
  %5 = load i32, ptr %4, align 4, !tbaa !546
  %6 = add i32 %5, 1
  store i32 %6, ptr %4, align 4, !tbaa !546
  ret void
}

; Function Attrs: mustprogress uwtable
define linkonce_odr hidden void @_ZN11ast_manager7inc_refEP3ast(ptr noundef nonnull align 8 dereferenceable(976) %0, ptr noundef %1) #4 comdat align 2 {
  %3 = alloca ptr, align 8
  %4 = alloca ptr, align 8
  store ptr %0, ptr %3, align 8, !tbaa !272
  store ptr %1, ptr %4, align 8, !tbaa !544
  %5 = load ptr, ptr %4, align 8, !tbaa !544
  %6 = icmp ne ptr %5, null
  br i1 %6, label %7, label %9

7:                                                ; preds = %2
  %8 = load ptr, ptr %4, align 8, !tbaa !544
  call void @_ZN3ast7inc_refEv(ptr noundef nonnull align 4 dereferenceable(16) %8)
  br label %9

9:                                                ; preds = %7, %2
  ret void
}

; Function Attrs: mustprogress uwtable
define linkonce_odr hidden void @_ZN7obj_refI4expr11ast_managerE7inc_refEv(ptr noundef nonnull align 8 dereferenceable(16) %0) #4 comdat align 2 {
  %2 = alloca ptr, align 8
  store ptr %0, ptr %2, align 8, !tbaa !667
  %3 = load ptr, ptr %2, align 8
  %4 = getelementptr inbounds nuw %class.obj_ref, ptr %3, i32 0, i32 0
  %5 = load ptr, ptr %4, align 8, !tbaa !669
  %6 = icmp ne ptr %5, null
  br i1 %6, label %7, label %12

7:                                                ; preds = %1
  %8 = getelementptr inbounds nuw %class.obj_ref, ptr %3, i32 0, i32 1
  %9 = load ptr, ptr %8, align 8, !tbaa !757
  %10 = getelementptr inbounds nuw %class.obj_ref, ptr %3, i32 0, i32 0
  %11 = load ptr, ptr %10, align 8, !tbaa !669
  call void @_ZN11ast_manager7inc_refEP3ast(ptr noundef nonnull align 8 dereferenceable(976) %9, ptr noundef %11)
  br label %12

12:                                               ; preds = %7, %1
  ret void
}

; Function Attrs: mustprogress uwtable
define linkonce_odr hidden void @_ZN7obj_refI4expr11ast_managerEC2EPS0_RS1_(ptr noundef nonnull align 8 dereferenceable(16) %0, ptr noundef %1, ptr noundef nonnull align 8 dereferenceable(976) %2) unnamed_addr #4 comdat align 2 {
  %4 = alloca ptr, align 8
  %5 = alloca ptr, align 8
  %6 = alloca ptr, align 8
  store ptr %0, ptr %4, align 8, !tbaa !667
  store ptr %1, ptr %5, align 8, !tbaa !295
  store ptr %2, ptr %6, align 8, !tbaa !272
  %7 = load ptr, ptr %4, align 8
  %8 = getelementptr inbounds nuw %class.obj_ref, ptr %7, i32 0, i32 0
  %9 = load ptr, ptr %5, align 8, !tbaa !295
  store ptr %9, ptr %8, align 8, !tbaa !669
  %10 = getelementptr inbounds nuw %class.obj_ref, ptr %7, i32 0, i32 1
  %11 = load ptr, ptr %6, align 8, !tbaa !272
  store ptr %11, ptr %10, align 8, !tbaa !272
  call void @_ZN7obj_refI4expr11ast_managerE7inc_refEv(ptr noundef nonnull align 8 dereferenceable(16) %7)
  ret void
}

; Function Attrs: mustprogress nounwind uwtable
define linkonce_odr hidden noundef ptr @_ZNK11ast_manager7mk_trueEv(ptr noundef nonnull align 8 dereferenceable(976) %0) #5 comdat align 2 {
  %2 = alloca ptr, align 8
  store ptr %0, ptr %2, align 8, !tbaa !272
  %3 = load ptr, ptr %2, align 8
  %4 = getelementptr inbounds nuw %class.ast_manager, ptr %3, i32 0, i32 15
  %5 = load ptr, ptr %4, align 8, !tbaa !831
  ret ptr %5
}

; Function Attrs: mustprogress uwtable
define linkonce_odr hidden void @_ZNK7datalog4ddnf3imp10get_answerEv(ptr dead_on_unwind noalias writable sret(%class.obj_ref) align 8 %0, ptr noundef nonnull align 8 dereferenceable(3296) %1) #4 comdat align 2 {
  %3 = alloca ptr, align 8
  %4 = alloca ptr, align 8
  store ptr %0, ptr %3, align 8
  store ptr %1, ptr %4, align 8, !tbaa !274
  %5 = load ptr, ptr %4, align 8
  call void @_Z26notify_assertion_violationPKciS0_(ptr noundef @.str.32, i32 noundef 537, ptr noundef @.str.2)
  call void @_Z18invoke_exit_actionj(i32 noundef 114)
  %6 = getelementptr inbounds nuw %"class.datalog::ddnf::imp", ptr %5, i32 0, i32 1
  %7 = load ptr, ptr %6, align 8, !tbaa !276
  %8 = call noundef ptr @_ZNK11ast_manager7mk_trueEv(ptr noundef nonnull align 8 dereferenceable(976) %7)
  %9 = getelementptr inbounds nuw %"class.datalog::ddnf::imp", ptr %5, i32 0, i32 1
  %10 = load ptr, ptr %9, align 8, !tbaa !276
  call void @_ZN7obj_refI4expr11ast_managerEC2EPS0_RS1_(ptr noundef nonnull align 8 dereferenceable(16) %0, ptr noundef %8, ptr noundef nonnull align 8 dereferenceable(976) %10)
  ret void
}

; Function Attrs: mustprogress uwtable
define hidden void @_ZN7datalog4ddnf10get_answerEv(ptr dead_on_unwind noalias writable sret(%class.obj_ref) align 8 %0, ptr noundef nonnull align 8 dereferenceable(56) %1) unnamed_addr #4 align 2 {
  %3 = alloca ptr, align 8
  %4 = alloca ptr, align 8
  store ptr %0, ptr %3, align 8
  store ptr %1, ptr %4, align 8, !tbaa !68
  %5 = load ptr, ptr %4, align 8
  %6 = getelementptr inbounds nuw %"class.datalog::ddnf", ptr %5, i32 0, i32 1
  %7 = load ptr, ptr %6, align 8, !tbaa !74
  call void @_ZNK7datalog4ddnf3imp10get_answerEv(ptr dead_on_unwind writable sret(%class.obj_ref) align 8 %0, ptr noundef nonnull align 8 dereferenceable(3296) %7)
  ret void
}