; Function Attrs: mustprogress uwtable
define hidden void @_ZN7datalog4ddnf10get_answerEv(ptr dead_on_unwind noalias writable writeonly sret(%class.obj_ref) align 8 captures(none) initializes((0, 16)) %0, ptr noundef nonnull readonly align 8 captures(none) dereferenceable(56) %1) unnamed_addr #3 align 2 {
  %3 = getelementptr inbounds nuw i8, ptr %1, i64 48
  %4 = load ptr, ptr %3, align 8, !tbaa !281
  tail call void @llvm.experimental.noalias.scope.decl(metadata !388)
  tail call void @_Z26notify_assertion_violationPKciS0_(ptr noundef nonnull @.str.32, i32 noundef 537, ptr noundef nonnull @.str.2), !noalias !388
  tail call void @_Z18invoke_exit_actionj(i32 noundef 114), !noalias !388
  %5 = getelementptr inbounds nuw i8, ptr %4, i64 8
  %6 = load ptr, ptr %5, align 8, !tbaa !310, !noalias !388
  %7 = getelementptr inbounds nuw i8, ptr %6, i64 856
  %8 = load ptr, ptr %7, align 8, !tbaa !334, !noalias !388
  store ptr %8, ptr %0, align 8, !tbaa !385, !alias.scope !388
  %9 = getelementptr inbounds nuw i8, ptr %0, i64 8
  store ptr %6, ptr %9, align 8, !tbaa !280, !alias.scope !388
  %.not.i.i.i = icmp eq ptr %8, null
  br i1 %.not.i.i.i, label %_ZNK7datalog4ddnf3imp10get_answerEv.exit, label %_ZN11ast_manager7inc_refEP3ast.exit.i.i.i

_ZN11ast_manager7inc_refEP3ast.exit.i.i.i:        ; preds = %2
  %10 = getelementptr inbounds nuw i8, ptr %8, i64 8
  %11 = load i32, ptr %10, align 4, !tbaa !386, !noalias !388
  %12 = add i32 %11, 1
  store i32 %12, ptr %10, align 4, !tbaa !386, !noalias !388
  br label %_ZNK7datalog4ddnf3imp10get_answerEv.exit

_ZNK7datalog4ddnf3imp10get_answerEv.exit:         ; preds = %2, %_ZN11ast_manager7inc_refEP3ast.exit.i.i.i
  ret void
}